; Function Attrs: mustprogress uwtable
define hidden void @_ZN4cvc58internal6theory5arith2nl14transcendental19TranscendentalState22getPiInitialUpperBoundEv(ptr noalias sret(%"class.cvc5::internal::Rational") align 8 %agg.result) local_unnamed_addr #3 align 2 personality ptr @__gxx_personality_v0 {
entry:
  %ref.tmp = alloca %"class.cvc5::internal::Rational", align 8
  %ref.tmp1 = alloca %"class.cvc5::internal::Rational", align 8
  call void @_ZN4cvc58internal8RationalC2Ei(ptr noundef nonnull align 8 dereferenceable(32) %ref.tmp, i32 noundef 104348)
  invoke void @_ZN4cvc58internal8RationalC2Ei(ptr noundef nonnull align 8 dereferenceable(32) %ref.tmp1, i32 noundef 33215)
          to label %invoke.cont unwind label %lpad

invoke.cont:                                      ; preds = %entry
  invoke void @_ZNK4cvc58internal8RationaldvERKS1_(ptr sret(%"class.cvc5::internal::Rational") align 8 %agg.result, ptr noundef nonnull align 8 dereferenceable(32) %ref.tmp, ptr noundef nonnull align 8 dereferenceable(32) %ref.tmp1)
          to label %invoke.cont3 unwind label %lpad2

invoke.cont3:                                     ; preds = %invoke.cont
  invoke void @__gmpq_clear(ptr noundef nonnull %ref.tmp1)
          to label %_ZN4cvc58internal8RationalD2Ev.exit unwind label %terminate.lpad.i.i

terminate.lpad.i.i:                               ; preds = %invoke.cont3
  %0 = landingpad { ptr, i32 }
          catch ptr null
  %1 = extractvalue { ptr, i32 } %0, 0
  call void @__clang_call_terminate(ptr %1) #24
  unreachable

_ZN4cvc58internal8RationalD2Ev.exit:              ; preds = %invoke.cont3
  invoke void @__gmpq_clear(ptr noundef nonnull %ref.tmp)
          to label %_ZN4cvc58internal8RationalD2Ev.exit3 unwind label %terminate.lpad.i.i2

terminate.lpad.i.i2:                              ; preds = %_ZN4cvc58internal8RationalD2Ev.exit
  %2 = landingpad { ptr, i32 }
          catch ptr null
  %3 = extractvalue { ptr, i32 } %2, 0
  call void @__clang_call_terminate(ptr %3) #24
  unreachable

_ZN4cvc58internal8RationalD2Ev.exit3:             ; preds = %_ZN4cvc58internal8RationalD2Ev.exit
  ret void

lpad:                                             ; preds = %entry
  %4 = landingpad { ptr, i32 }
          cleanup
  br label %ehcleanup

lpad2:                                            ; preds = %invoke.cont
  %5 = landingpad { ptr, i32 }
          cleanup
  invoke void @__gmpq_clear(ptr noundef nonnull %ref.tmp1)
          to label %ehcleanup unwind label %terminate.lpad.i.i4

terminate.lpad.i.i4:                              ; preds = %lpad2
  %6 = landingpad { ptr, i32 }
          catch ptr null
  %7 = extractvalue { ptr, i32 } %6, 0
  call void @__clang_call_terminate(ptr %7) #24
  unreachable

ehcleanup:                                        ; preds = %lpad2, %lpad
  %.pn = phi { ptr, i32 } [ %4, %lpad ], [ %5, %lpad2 ]
  invoke void @__gmpq_clear(ptr noundef nonnull %ref.tmp)
          to label %_ZN4cvc58internal8RationalD2Ev.exit7 unwind label %terminate.lpad.i.i6

terminate.lpad.i.i6:                              ; preds = %ehcleanup
  %8 = landingpad { ptr, i32 }
          catch ptr null
  %9 = extractvalue { ptr, i32 } %8, 0
  call void @__clang_call_terminate(ptr %9) #24
  unreachable

_ZN4cvc58internal8RationalD2Ev.exit7:             ; preds = %ehcleanup
  resume { ptr, i32 } %.pn
}